; ModuleID = '7/437.c'
source_filename = "7/437.c"
target datalayout = "e-m:e-p270:32:32-p271:32:32-p272:64:64-i64:64-f80:128-n8:16:32:64-S128"
target triple = "x86_64-pc-linux-gnu"

@.str = private unnamed_addr constant [3 x i8] c"%s\00", align 1

; Function Attrs: noinline nounwind uwtable
define dso_local i32 @main() #0 {
  %1 = alloca i32, align 4
  %2 = alloca [256 x i8], align 16
  %3 = alloca [260 x i8], align 16
  %4 = alloca [260 x i8], align 16
  %5 = alloca [520 x i8], align 16
  %6 = alloca i32, align 4
  %7 = alloca i32, align 4
  %8 = alloca i32, align 4
  %9 = alloca i32, align 4
  %10 = alloca i32, align 4
  %11 = alloca i8*, align 8
  %12 = alloca i32, align 4
  store i32 0, i32* %1, align 4
  %13 = getelementptr inbounds [256 x i8], [256 x i8]* %2, i64 0, i64 0
  %14 = call i32 (i8*, ...) bitcast (i32 (...)* @gets to i32 (i8*, ...)*)(i8* %13)
  %15 = getelementptr inbounds [260 x i8], [260 x i8]* %3, i64 0, i64 0
  %16 = call i32 (i8*, ...) bitcast (i32 (...)* @gets to i32 (i8*, ...)*)(i8* %15)
  %17 = getelementptr inbounds [260 x i8], [260 x i8]* %4, i64 0, i64 0
  %18 = call i32 (i8*, ...) bitcast (i32 (...)* @gets to i32 (i8*, ...)*)(i8* %17)
  %19 = getelementptr inbounds [256 x i8], [256 x i8]* %2, i64 0, i64 0
  %20 = call i64 @strlen(i8* %19) #3
  %21 = trunc i64 %20 to i32
  store i32 %21, i32* %8, align 4
  %22 = getelementptr inbounds [260 x i8], [260 x i8]* %3, i64 0, i64 0
  %23 = call i64 @strlen(i8* %22) #3
  %24 = trunc i64 %23 to i32
  store i32 %24, i32* %9, align 4
  %25 = getelementptr inbounds [260 x i8], [260 x i8]* %4, i64 0, i64 0
  %26 = call i64 @strlen(i8* %25) #3
  %27 = trunc i64 %26 to i32
  store i32 %27, i32* %10, align 4
  %28 = getelementptr inbounds [256 x i8], [256 x i8]* %2, i64 0, i64 0
  %29 = getelementptr inbounds [260 x i8], [260 x i8]* %3, i64 0, i64 0
  %30 = call i8* @strstr(i8* %28, i8* %29) #3
  store i8* %30, i8** %11, align 8
  %31 = load i8*, i8** %11, align 8
  %32 = icmp eq i8* %31, null
  br i1 %32, label %33, label %36

33:                                               ; preds = %0
  %34 = getelementptr inbounds [256 x i8], [256 x i8]* %2, i64 0, i64 0
  %35 = call i32 (i8*, ...) @printf(i8* getelementptr inbounds ([3 x i8], [3 x i8]* @.str, i64 0, i64 0), i8* %34)
  br label %108

36:                                               ; preds = %0
  %37 = load i8*, i8** %11, align 8
  %38 = getelementptr inbounds [256 x i8], [256 x i8]* %2, i64 0, i64 0
  %39 = ptrtoint i8* %37 to i64
  %40 = ptrtoint i8* %38 to i64
  %41 = sub i64 %39, %40
  %42 = trunc i64 %41 to i32
  store i32 %42, i32* %7, align 4
  store i32 0, i32* %6, align 4
  br label %43

43:                                               ; preds = %55, %36
  %44 = load i32, i32* %6, align 4
  %45 = load i32, i32* %7, align 4
  %46 = icmp slt i32 %44, %45
  br i1 %46, label %47, label %58

47:                                               ; preds = %43
  %48 = load i32, i32* %6, align 4
  %49 = sext i32 %48 to i64
  %50 = getelementptr inbounds [256 x i8], [256 x i8]* %2, i64 0, i64 %49
  %51 = load i8, i8* %50, align 1
  %52 = load i32, i32* %6, align 4
  %53 = sext i32 %52 to i64
  %54 = getelementptr inbounds [520 x i8], [520 x i8]* %5, i64 0, i64 %53
  store i8 %51, i8* %54, align 1
  br label %55

55:                                               ; preds = %47
  %56 = load i32, i32* %6, align 4
  %57 = add nsw i32 %56, 1
  store i32 %57, i32* %6, align 4
  br label %43

58:                                               ; preds = %43
  store i32 0, i32* %6, align 4
  br label %59

59:                                               ; preds = %73, %58
  %60 = load i32, i32* %6, align 4
  %61 = load i32, i32* %10, align 4
  %62 = icmp slt i32 %60, %61
  br i1 %62, label %63, label %76

63:                                               ; preds = %59
  %64 = load i32, i32* %6, align 4
  %65 = sext i32 %64 to i64
  %66 = getelementptr inbounds [260 x i8], [260 x i8]* %4, i64 0, i64 %65
  %67 = load i8, i8* %66, align 1
  %68 = load i32, i32* %7, align 4
  %69 = load i32, i32* %6, align 4
  %70 = add nsw i32 %68, %69
  %71 = sext i32 %70 to i64
  %72 = getelementptr inbounds [520 x i8], [520 x i8]* %5, i64 0, i64 %71
  store i8 %67, i8* %72, align 1
  br label %73

73:                                               ; preds = %63
  %74 = load i32, i32* %6, align 4
  %75 = add nsw i32 %74, 1
  store i32 %75, i32* %6, align 4
  br label %59

76:                                               ; preds = %59
  %77 = load i32, i32* %7, align 4
  %78 = load i32, i32* %10, align 4
  %79 = add nsw i32 %77, %78
  store i32 %79, i32* %12, align 4
  store i32 0, i32* %6, align 4
  br label %80

80:                                               ; preds = %102, %76
  %81 = load i32, i32* %7, align 4
  %82 = load i32, i32* %9, align 4
  %83 = add nsw i32 %81, %82
  %84 = load i32, i32* %6, align 4
  %85 = add nsw i32 %83, %84
  %86 = load i32, i32* %8, align 4
  %87 = icmp sle i32 %85, %86
  br i1 %87, label %88, label %105

88:                                               ; preds = %80
  %89 = load i32, i32* %7, align 4
  %90 = load i32, i32* %9, align 4
  %91 = add nsw i32 %89, %90
  %92 = load i32, i32* %6, align 4
  %93 = add nsw i32 %91, %92
  %94 = sext i32 %93 to i64
  %95 = getelementptr inbounds [256 x i8], [256 x i8]* %2, i64 0, i64 %94
  %96 = load i8, i8* %95, align 1
  %97 = load i32, i32* %12, align 4
  %98 = load i32, i32* %6, align 4
  %99 = add nsw i32 %97, %98
  %100 = sext i32 %99 to i64
  %101 = getelementptr inbounds [520 x i8], [520 x i8]* %5, i64 0, i64 %100
  store i8 %96, i8* %101, align 1
  br label %102

102:                                              ; preds = %88
  %103 = load i32, i32* %6, align 4
  %104 = add nsw i32 %103, 1
  store i32 %104, i32* %6, align 4
  br label %80

105:                                              ; preds = %80
  %106 = getelementptr inbounds [520 x i8], [520 x i8]* %5, i64 0, i64 0
  %107 = call i32 (i8*, ...) @printf(i8* getelementptr inbounds ([3 x i8], [3 x i8]* @.str, i64 0, i64 0), i8* %106)
  br label %108

108:                                              ; preds = %105, %33
  ret i32 0
}

declare dso_local i32 @gets(...) #1

; Function Attrs: nounwind readonly
declare dso_local i64 @strlen(i8*) #2

; Function Attrs: nounwind readonly
declare dso_local i8* @strstr(i8*, i8*) #2

declare dso_local i32 @printf(i8*, ...) #1


!llvm.module.flags = !{!0}
!llvm.ident = !{!1}

!0 = !{i32 1, !"wchar_size", i32 4}
!1 = !{!"clang version 10.0.0-4ubuntu1 "}
